target datalayout = "e-m:e-p270:32:32-p271:32:32-p272:64:64-i64:64-i128:128-f80:128-n8:16:32:64-S128"
target triple = "x86_64-pc-linux-gnu"

%struct.Fraig_NodeStruct_t_ = type { i32, i32, i32, i32, i32, i32, i32, ptr, ptr, ptr, ptr, ptr, ptr, ptr, ptr, i32, i32, ptr, ptr, ptr, ptr, ptr, ptr, ptr }

; Function Attrs: nounwind uwtable
define i32 @Fraig_CompareSimInfoUnderMask(ptr noundef %0, ptr noundef %1, i32 noundef %2, i32 noundef %3, ptr noundef %4) #0 {
  %6 = alloca i32, align 4
  %7 = alloca ptr, align 8
  %8 = alloca ptr, align 8
  %9 = alloca i32, align 4
  %10 = alloca i32, align 4
  %11 = alloca ptr, align 8
  %12 = alloca ptr, align 8
  %13 = alloca ptr, align 8
  %14 = alloca i32, align 4
  %15 = alloca i32, align 4
  store ptr %0, ptr %7, align 8, !tbaa !19
  store ptr %1, ptr %8, align 8, !tbaa !19
  store i32 %2, ptr %9, align 4, !tbaa !3
  store i32 %3, ptr %10, align 4, !tbaa !3
  store ptr %4, ptr %11, align 8, !tbaa !68
  call void @llvm.lifetime.start.p0(i64 8, ptr %12) #7
  call void @llvm.lifetime.start.p0(i64 8, ptr %13) #7
  call void @llvm.lifetime.start.p0(i64 4, ptr %14) #7
  %16 = load i32, ptr %10, align 4, !tbaa !3
  %17 = icmp ne i32 %16, 0
  br i1 %17, label %18, label %22

18:                                               ; preds = %5
  %19 = load ptr, ptr %7, align 8, !tbaa !19
  %20 = getelementptr inbounds nuw %struct.Fraig_NodeStruct_t_, ptr %19, i32 0, i32 17
  %21 = load ptr, ptr %20, align 8, !tbaa !51
  br label %26

22:                                               ; preds = %5
  %23 = load ptr, ptr %7, align 8, !tbaa !19
  %24 = getelementptr inbounds nuw %struct.Fraig_NodeStruct_t_, ptr %23, i32 0, i32 18
  %25 = load ptr, ptr %24, align 8, !tbaa !54
  br label %26

26:                                               ; preds = %22, %18
  %27 = phi ptr [ %21, %18 ], [ %25, %22 ]
  store ptr %27, ptr %12, align 8, !tbaa !68
  %28 = load i32, ptr %10, align 4, !tbaa !3
  %29 = icmp ne i32 %28, 0
  br i1 %29, label %30, label %34

30:                                               ; preds = %26
  %31 = load ptr, ptr %8, align 8, !tbaa !19
  %32 = getelementptr inbounds nuw %struct.Fraig_NodeStruct_t_, ptr %31, i32 0, i32 17
  %33 = load ptr, ptr %32, align 8, !tbaa !51
  br label %38

34:                                               ; preds = %26
  %35 = load ptr, ptr %8, align 8, !tbaa !19
  %36 = getelementptr inbounds nuw %struct.Fraig_NodeStruct_t_, ptr %35, i32 0, i32 18
  %37 = load ptr, ptr %36, align 8, !tbaa !54
  br label %38

38:                                               ; preds = %34, %30
  %39 = phi ptr [ %33, %30 ], [ %37, %34 ]
  store ptr %39, ptr %13, align 8, !tbaa !68
  store i32 0, ptr %14, align 4, !tbaa !3
  br label %40

40:                                               ; preds = %70, %38
  %41 = load i32, ptr %14, align 4, !tbaa !3
  %42 = load i32, ptr %9, align 4, !tbaa !3
  %43 = icmp slt i32 %41, %42
  br i1 %43, label %44, label %73

44:                                               ; preds = %40
  %45 = load ptr, ptr %12, align 8, !tbaa !68
  %46 = load i32, ptr %14, align 4, !tbaa !3
  %47 = sext i32 %46 to i64
  %48 = getelementptr inbounds i32, ptr %45, i64 %47
  %49 = load i32, ptr %48, align 4, !tbaa !3
  %50 = load ptr, ptr %11, align 8, !tbaa !68
  %51 = load i32, ptr %14, align 4, !tbaa !3
  %52 = sext i32 %51 to i64
  %53 = getelementptr inbounds i32, ptr %50, i64 %52
  %54 = load i32, ptr %53, align 4, !tbaa !3
  %55 = and i32 %49, %54
  %56 = load ptr, ptr %13, align 8, !tbaa !68
  %57 = load i32, ptr %14, align 4, !tbaa !3
  %58 = sext i32 %57 to i64
  %59 = getelementptr inbounds i32, ptr %56, i64 %58
  %60 = load i32, ptr %59, align 4, !tbaa !3
  %61 = load ptr, ptr %11, align 8, !tbaa !68
  %62 = load i32, ptr %14, align 4, !tbaa !3
  %63 = sext i32 %62 to i64
  %64 = getelementptr inbounds i32, ptr %61, i64 %63
  %65 = load i32, ptr %64, align 4, !tbaa !3
  %66 = and i32 %60, %65
  %67 = icmp ne i32 %55, %66
  br i1 %67, label %68, label %69

68:                                               ; preds = %44
  store i32 0, ptr %6, align 4
  store i32 1, ptr %15, align 4
  br label %74

69:                                               ; preds = %44
  br label %70

70:                                               ; preds = %69
  %71 = load i32, ptr %14, align 4, !tbaa !3
  %72 = add nsw i32 %71, 1
  store i32 %72, ptr %14, align 4, !tbaa !3
  br label %40, !llvm.loop !69

73:                                               ; preds = %40
  store i32 1, ptr %6, align 4
  store i32 1, ptr %15, align 4
  br label %74

74:                                               ; preds = %73, %68
  call void @llvm.lifetime.end.p0(i64 4, ptr %14) #7
  call void @llvm.lifetime.end.p0(i64 8, ptr %13) #7
  call void @llvm.lifetime.end.p0(i64 8, ptr %12) #7
  %75 = load i32, ptr %6, align 4
  ret i32 %75
}