; Function Attrs: nofree norecurse nosync nounwind memory(read, inaccessiblemem: none) uwtable
define range(i32 0, 2) i32 @Fraig_CompareSimInfoUnderMask(ptr noundef readonly captures(none) %0, ptr noundef readonly captures(none) %1, i32 noundef %2, i32 noundef %3, ptr noundef readonly captures(none) %4) local_unnamed_addr #6 {
  %.not = icmp eq i32 %3, 0
  %.in.v = select i1 %.not, i64 112, i64 104
  %.in = getelementptr inbounds nuw i8, ptr %0, i64 %.in.v
  %6 = load ptr, ptr %.in, align 8, !tbaa !63
  %.in18 = getelementptr inbounds nuw i8, ptr %1, i64 %.in.v
  %7 = load ptr, ptr %.in18, align 8, !tbaa !63
  %8 = icmp sgt i32 %2, 0
  br i1 %8, label %.lr.ph.preheader, label %._crit_edge

.lr.ph.preheader:                                 ; preds = %5
  %wide.trip.count = zext nneg i32 %2 to i64
  br label %.lr.ph

9:                                                ; preds = %.lr.ph
  %indvars.iv.next = add nuw nsw i64 %indvars.iv, 1
  %exitcond.not = icmp eq i64 %indvars.iv.next, %wide.trip.count
  br i1 %exitcond.not, label %._crit_edge, label %.lr.ph, !llvm.loop !64

.lr.ph:                                           ; preds = %.lr.ph.preheader, %9
  %indvars.iv = phi i64 [ 0, %.lr.ph.preheader ], [ %indvars.iv.next, %9 ]
  %10 = getelementptr inbounds nuw i32, ptr %6, i64 %indvars.iv
  %11 = load i32, ptr %10, align 4, !tbaa !41
  %12 = getelementptr inbounds nuw i32, ptr %4, i64 %indvars.iv
  %13 = load i32, ptr %12, align 4, !tbaa !41
  %14 = getelementptr inbounds nuw i32, ptr %7, i64 %indvars.iv
  %15 = load i32, ptr %14, align 4, !tbaa !41
  %16 = xor i32 %15, %11
  %17 = and i32 %16, %13
  %.not19 = icmp eq i32 %17, 0
  br i1 %.not19, label %9, label %._crit_edge

._crit_edge:                                      ; preds = %.lr.ph, %9, %5
  %.017 = phi i32 [ 1, %5 ], [ 1, %9 ], [ 0, %.lr.ph ]
  ret i32 %.017
}